; Function Attrs: mustprogress nofree norecurse nosync nounwind willreturn memory(argmem: readwrite) uwtable
define internal range(i32 0, 23) i32 @config_cache_oblivious_ctl(ptr readnone captures(none) %0, ptr readnone captures(none) %1, i64 %2, ptr noundef writeonly captures(address_is_null) %3, ptr noundef captures(address_is_null) %4, ptr noundef readnone captures(address_is_null) %5, i64 noundef %6) #10 {
  %8 = alloca i8, align 1
  call void @llvm.lifetime.start.p0(i64 1, ptr nonnull %8)
  %9 = icmp ne ptr %5, null
  %10 = icmp ne i64 %6, 0
  %or.cond = or i1 %9, %10
  br i1 %or.cond, label %20, label %11

11:                                               ; preds = %7
  store i8 1, ptr %8, align 1, !tbaa !133
  %12 = icmp ne ptr %3, null
  %13 = icmp ne ptr %4, null
  %or.cond3 = and i1 %12, %13
  br i1 %or.cond3, label %14, label %20

14:                                               ; preds = %11
  %15 = load i64, ptr %4, align 8, !tbaa !3
  switch i64 %15, label %17 [
    i64 1, label %19
    i64 0, label %16
  ]

16:                                               ; preds = %14
  br label %17

17:                                               ; preds = %14, %16
  %18 = phi i64 [ 0, %16 ], [ 1, %14 ]
  call void @llvm.memcpy.p0.p0.i64(ptr nonnull align 1 %3, ptr nonnull align 1 %8, i64 %18, i1 false)
  store i64 %18, ptr %4, align 8, !tbaa !3
  br label %20

19:                                               ; preds = %14
  store i8 1, ptr %3, align 1, !tbaa !133
  br label %20

20:                                               ; preds = %17, %7, %19, %11
  %.018 = phi i32 [ 22, %17 ], [ 1, %7 ], [ 0, %19 ], [ 0, %11 ]
  call void @llvm.lifetime.end.p0(i64 1, ptr nonnull %8)
  ret i32 %.018
}